#include <math.h>
#include <stdio.h>
#include <stdlib.h>
#include <string.h>


int main()
{
	char str[510];
	char word[300][5];
	int n;
	int i,j,k;
	int len;
	int count;
	int max=1;
	scanf("%d\n",&n);
	gets(str);
	len=strlen(str);
	for (i=0,j=0;i<=len-n;i++)
	{
		for (k=0;k<n;k++)
		{
			word[j][k]=str[i+k];
		}
		word[j][n]='\0';
		j++;
	}
	for (i=0;i<j;i++)
	{
		count=0;
		for (k=i;k<j;k++)
		{
			if (strcmp(word[i],word[k])==0)
			{
				count++;
			}
		}
		max=(count>max)? count:max;
	}
	if (max==1)
	{
		printf("NO\n");
		return 0;
	}
	else
	{
		printf("%d\n",max);
		for (i=0;i<j;i++)
		{
			count=0;
			for (k=i;k<j;k++)
			{
				if (strcmp(word[i],word[k])==0)
				{
					count++;
				}
			}
			if (count==max)
			{
				printf("%s\n",word[i]);
			}
		}
		return 0;
	}
}