; ModuleID = '51/102.c'
source_filename = "51/102.c"
target datalayout = "e-m:e-p270:32:32-p271:32:32-p272:64:64-i64:64-f80:128-n8:16:32:64-S128"
target triple = "x86_64-pc-linux-gnu"

@.str = private unnamed_addr constant [4 x i8] c"%d\0A\00", align 1
@.str.1 = private unnamed_addr constant [4 x i8] c"NO\0A\00", align 1
@.str.2 = private unnamed_addr constant [4 x i8] c"%s\0A\00", align 1

; Function Attrs: noinline nounwind uwtable
define dso_local i32 @main() #0 {
  %1 = alloca i32, align 4
  %2 = alloca [510 x i8], align 16
  %3 = alloca [300 x [5 x i8]], align 16
  %4 = alloca i32, align 4
  %5 = alloca i32, align 4
  %6 = alloca i32, align 4
  %7 = alloca i32, align 4
  %8 = alloca i32, align 4
  %9 = alloca i32, align 4
  %10 = alloca i32, align 4
  store i32 0, i32* %1, align 4
  store i32 1, i32* %10, align 4
  %11 = call i32 (i8*, ...) @__isoc99_scanf(i8* getelementptr inbounds ([4 x i8], [4 x i8]* @.str, i64 0, i64 0), i32* %4)
  %12 = getelementptr inbounds [510 x i8], [510 x i8]* %2, i64 0, i64 0
  %13 = call i32 (i8*, ...) bitcast (i32 (...)* @gets to i32 (i8*, ...)*)(i8* %12)
  %14 = getelementptr inbounds [510 x i8], [510 x i8]* %2, i64 0, i64 0
  %15 = call i64 @strlen(i8* %14) #3
  %16 = trunc i64 %15 to i32
  store i32 %16, i32* %8, align 4
  store i32 0, i32* %5, align 4
  store i32 0, i32* %6, align 4
  br label %17

17:                                               ; preds = %53, %0
  %18 = load i32, i32* %5, align 4
  %19 = load i32, i32* %8, align 4
  %20 = load i32, i32* %4, align 4
  %21 = sub nsw i32 %19, %20
  %22 = icmp sle i32 %18, %21
  br i1 %22, label %23, label %56

23:                                               ; preds = %17
  store i32 0, i32* %7, align 4
  br label %24

24:                                               ; preds = %41, %23
  %25 = load i32, i32* %7, align 4
  %26 = load i32, i32* %4, align 4
  %27 = icmp slt i32 %25, %26
  br i1 %27, label %28, label %44

28:                                               ; preds = %24
  %29 = load i32, i32* %5, align 4
  %30 = load i32, i32* %7, align 4
  %31 = add nsw i32 %29, %30
  %32 = sext i32 %31 to i64
  %33 = getelementptr inbounds [510 x i8], [510 x i8]* %2, i64 0, i64 %32
  %34 = load i8, i8* %33, align 1
  %35 = load i32, i32* %6, align 4
  %36 = sext i32 %35 to i64
  %37 = getelementptr inbounds [300 x [5 x i8]], [300 x [5 x i8]]* %3, i64 0, i64 %36
  %38 = load i32, i32* %7, align 4
  %39 = sext i32 %38 to i64
  %40 = getelementptr inbounds [5 x i8], [5 x i8]* %37, i64 0, i64 %39
  store i8 %34, i8* %40, align 1
  br label %41

41:                                               ; preds = %28
  %42 = load i32, i32* %7, align 4
  %43 = add nsw i32 %42, 1
  store i32 %43, i32* %7, align 4
  br label %24

44:                                               ; preds = %24
  %45 = load i32, i32* %6, align 4
  %46 = sext i32 %45 to i64
  %47 = getelementptr inbounds [300 x [5 x i8]], [300 x [5 x i8]]* %3, i64 0, i64 %46
  %48 = load i32, i32* %4, align 4
  %49 = sext i32 %48 to i64
  %50 = getelementptr inbounds [5 x i8], [5 x i8]* %47, i64 0, i64 %49
  store i8 0, i8* %50, align 1
  %51 = load i32, i32* %6, align 4
  %52 = add nsw i32 %51, 1
  store i32 %52, i32* %6, align 4
  br label %53

53:                                               ; preds = %44
  %54 = load i32, i32* %5, align 4
  %55 = add nsw i32 %54, 1
  store i32 %55, i32* %5, align 4
  br label %17

56:                                               ; preds = %17
  store i32 0, i32* %5, align 4
  br label %57

57:                                               ; preds = %95, %56
  %58 = load i32, i32* %5, align 4
  %59 = load i32, i32* %6, align 4
  %60 = icmp slt i32 %58, %59
  br i1 %60, label %61, label %98

61:                                               ; preds = %57
  store i32 0, i32* %9, align 4
  %62 = load i32, i32* %5, align 4
  store i32 %62, i32* %7, align 4
  br label %63

63:                                               ; preds = %82, %61
  %64 = load i32, i32* %7, align 4
  %65 = load i32, i32* %6, align 4
  %66 = icmp slt i32 %64, %65
  br i1 %66, label %67, label %85

67:                                               ; preds = %63
  %68 = load i32, i32* %5, align 4
  %69 = sext i32 %68 to i64
  %70 = getelementptr inbounds [300 x [5 x i8]], [300 x [5 x i8]]* %3, i64 0, i64 %69
  %71 = getelementptr inbounds [5 x i8], [5 x i8]* %70, i64 0, i64 0
  %72 = load i32, i32* %7, align 4
  %73 = sext i32 %72 to i64
  %74 = getelementptr inbounds [300 x [5 x i8]], [300 x [5 x i8]]* %3, i64 0, i64 %73
  %75 = getelementptr inbounds [5 x i8], [5 x i8]* %74, i64 0, i64 0
  %76 = call i32 @strcmp(i8* %71, i8* %75) #3
  %77 = icmp eq i32 %76, 0
  br i1 %77, label %78, label %81

78:                                               ; preds = %67
  %79 = load i32, i32* %9, align 4
  %80 = add nsw i32 %79, 1
  store i32 %80, i32* %9, align 4
  br label %81

81:                                               ; preds = %78, %67
  br label %82

82:                                               ; preds = %81
  %83 = load i32, i32* %7, align 4
  %84 = add nsw i32 %83, 1
  store i32 %84, i32* %7, align 4
  br label %63

85:                                               ; preds = %63
  %86 = load i32, i32* %9, align 4
  %87 = load i32, i32* %10, align 4
  %88 = icmp sgt i32 %86, %87
  br i1 %88, label %89, label %91

89:                                               ; preds = %85
  %90 = load i32, i32* %9, align 4
  br label %93

91:                                               ; preds = %85
  %92 = load i32, i32* %10, align 4
  br label %93

93:                                               ; preds = %91, %89
  %94 = phi i32 [ %90, %89 ], [ %92, %91 ]
  store i32 %94, i32* %10, align 4
  br label %95

95:                                               ; preds = %93
  %96 = load i32, i32* %5, align 4
  %97 = add nsw i32 %96, 1
  store i32 %97, i32* %5, align 4
  br label %57

98:                                               ; preds = %57
  %99 = load i32, i32* %10, align 4
  %100 = icmp eq i32 %99, 1
  br i1 %100, label %101, label %103

101:                                              ; preds = %98
  %102 = call i32 (i8*, ...) @printf(i8* getelementptr inbounds ([4 x i8], [4 x i8]* @.str.1, i64 0, i64 0))
  store i32 0, i32* %1, align 4
  br label %149

103:                                              ; preds = %98
  %104 = load i32, i32* %10, align 4
  %105 = call i32 (i8*, ...) @printf(i8* getelementptr inbounds ([4 x i8], [4 x i8]* @.str, i64 0, i64 0), i32 %104)
  store i32 0, i32* %5, align 4
  br label %106

106:                                              ; preds = %145, %103
  %107 = load i32, i32* %5, align 4
  %108 = load i32, i32* %6, align 4
  %109 = icmp slt i32 %107, %108
  br i1 %109, label %110, label %148

110:                                              ; preds = %106
  store i32 0, i32* %9, align 4
  %111 = load i32, i32* %5, align 4
  store i32 %111, i32* %7, align 4
  br label %112

112:                                              ; preds = %131, %110
  %113 = load i32, i32* %7, align 4
  %114 = load i32, i32* %6, align 4
  %115 = icmp slt i32 %113, %114
  br i1 %115, label %116, label %134

116:                                              ; preds = %112
  %117 = load i32, i32* %5, align 4
  %118 = sext i32 %117 to i64
  %119 = getelementptr inbounds [300 x [5 x i8]], [300 x [5 x i8]]* %3, i64 0, i64 %118
  %120 = getelementptr inbounds [5 x i8], [5 x i8]* %119, i64 0, i64 0
  %121 = load i32, i32* %7, align 4
  %122 = sext i32 %121 to i64
  %123 = getelementptr inbounds [300 x [5 x i8]], [300 x [5 x i8]]* %3, i64 0, i64 %122
  %124 = getelementptr inbounds [5 x i8], [5 x i8]* %123, i64 0, i64 0
  %125 = call i32 @strcmp(i8* %120, i8* %124) #3
  %126 = icmp eq i32 %125, 0
  br i1 %126, label %127, label %130

127:                                              ; preds = %116
  %128 = load i32, i32* %9, align 4
  %129 = add nsw i32 %128, 1
  store i32 %129, i32* %9, align 4
  br label %130

130:                                              ; preds = %127, %116
  br label %131

131:                                              ; preds = %130
  %132 = load i32, i32* %7, align 4
  %133 = add nsw i32 %132, 1
  store i32 %133, i32* %7, align 4
  br label %112

134:                                              ; preds = %112
  %135 = load i32, i32* %9, align 4
  %136 = load i32, i32* %10, align 4
  %137 = icmp eq i32 %135, %136
  br i1 %137, label %138, label %144

138:                                              ; preds = %134
  %139 = load i32, i32* %5, align 4
  %140 = sext i32 %139 to i64
  %141 = getelementptr inbounds [300 x [5 x i8]], [300 x [5 x i8]]* %3, i64 0, i64 %140
  %142 = getelementptr inbounds [5 x i8], [5 x i8]* %141, i64 0, i64 0
  %143 = call i32 (i8*, ...) @printf(i8* getelementptr inbounds ([4 x i8], [4 x i8]* @.str.2, i64 0, i64 0), i8* %142)
  br label %144

144:                                              ; preds = %138, %134
  br label %145

145:                                              ; preds = %144
  %146 = load i32, i32* %5, align 4
  %147 = add nsw i32 %146, 1
  store i32 %147, i32* %5, align 4
  br label %106

148:                                              ; preds = %106
  store i32 0, i32* %1, align 4
  br label %149

149:                                              ; preds = %148, %101
  %150 = load i32, i32* %1, align 4
  ret i32 %150
}

declare dso_local i32 @__isoc99_scanf(i8*, ...) #1

declare dso_local i32 @gets(...) #1

; Function Attrs: nounwind readonly
declare dso_local i64 @strlen(i8*) #2

; Function Attrs: nounwind readonly
declare dso_local i32 @strcmp(i8*, i8*) #2

declare dso_local i32 @printf(i8*, ...) #1


!llvm.module.flags = !{!0}
!llvm.ident = !{!1}

!0 = !{i32 1, !"wchar_size", i32 4}
!1 = !{!"clang version 10.0.0-4ubuntu1 "}
